target datalayout = "e-m:e-p270:32:32-p271:32:32-p272:64:64-i64:64-i128:128-f80:128-n8:16:32:64-S128"
target triple = "x86_64-pc-linux-gnu"

%"class.cv::xobjdetect::WaldBoost" = type { i32, %"class.std::vector", %"class.std::vector", %"class.std::vector.0", %"class.std::vector.0", %"class.std::vector" }
%"class.std::vector.0" = type { %"struct.std::_Vector_base.1" }
%"struct.std::_Vector_base.1" = type { %"struct.std::_Vector_base<int, std::allocator<int>>::_Vector_impl" }
%"struct.std::_Vector_base<int, std::allocator<int>>::_Vector_impl" = type { %"struct.std::_Vector_base<int, std::allocator<int>>::_Vector_impl_data" }
%"struct.std::_Vector_base<int, std::allocator<int>>::_Vector_impl_data" = type { ptr, ptr, ptr }
%"class.std::vector" = type { %"struct.std::_Vector_base" }
%"struct.std::_Vector_base" = type { %"struct.std::_Vector_base<float, std::allocator<float>>::_Vector_impl" }
%"struct.std::_Vector_base<float, std::allocator<float>>::_Vector_impl" = type { %"struct.std::_Vector_base<float, std::allocator<float>>::_Vector_impl_data" }
%"struct.std::_Vector_base<float, std::allocator<float>>::_Vector_impl_data" = type { ptr, ptr, ptr }
%"class.std::__shared_ptr" = type { ptr, %"class.std::__shared_count" }
%"class.std::__shared_count" = type { ptr }

; Function Attrs: mustprogress nounwind uwtable
define linkonce_odr hidden noundef ptr @_ZNKSt12__shared_ptrIN2cv10xobjdetect18CvFeatureEvaluatorELN9__gnu_cxx12_Lock_policyE2EE3getEv(ptr noundef nonnull align 8 dereferenceable(16) %0) #4 comdat align 2 {
  %2 = alloca ptr, align 8
  store ptr %0, ptr %2, align 8, !tbaa !77
  %3 = load ptr, ptr %2, align 8
  %4 = getelementptr inbounds nuw %"class.std::__shared_ptr", ptr %3, i32 0, i32 0
  %5 = load ptr, ptr %4, align 8, !tbaa !278
  ret ptr %5
}

; Function Attrs: mustprogress nounwind uwtable
define linkonce_odr hidden noundef nonnull align 4 dereferenceable(4) ptr @_ZNKSt6vectorIfSaIfEEixEm(ptr noundef nonnull align 8 dereferenceable(24) %0, i64 noundef %1) #4 comdat align 2 {
  %3 = alloca ptr, align 8
  %4 = alloca i64, align 8
  store ptr %0, ptr %3, align 8, !tbaa !22
  store i64 %1, ptr %4, align 8, !tbaa !36
  %5 = load ptr, ptr %3, align 8
  %6 = getelementptr inbounds nuw %"struct.std::_Vector_base", ptr %5, i32 0, i32 0
  %7 = getelementptr inbounds nuw %"struct.std::_Vector_base<float, std::allocator<float>>::_Vector_impl_data", ptr %6, i32 0, i32 0
  %8 = load ptr, ptr %7, align 8, !tbaa !60
  %9 = load i64, ptr %4, align 8, !tbaa !36
  %10 = getelementptr inbounds nuw float, ptr %8, i64 %9
  ret ptr %10
}

; Function Attrs: mustprogress nounwind uwtable
define linkonce_odr hidden noundef nonnull align 4 dereferenceable(4) ptr @_ZNKSt6vectorIiSaIiEEixEm(ptr noundef nonnull align 8 dereferenceable(24) %0, i64 noundef %1) #4 comdat align 2 {
  %3 = alloca ptr, align 8
  %4 = alloca i64, align 8
  store ptr %0, ptr %3, align 8, !tbaa !24
  store i64 %1, ptr %4, align 8, !tbaa !36
  %5 = load ptr, ptr %3, align 8
  %6 = getelementptr inbounds nuw %"struct.std::_Vector_base.1", ptr %5, i32 0, i32 0
  %7 = getelementptr inbounds nuw %"struct.std::_Vector_base<int, std::allocator<int>>::_Vector_impl_data", ptr %6, i32 0, i32 0
  %8 = load ptr, ptr %7, align 8, !tbaa !26
  %9 = load i64, ptr %4, align 8, !tbaa !36
  %10 = getelementptr inbounds nuw i32, ptr %8, i64 %9
  ret ptr %10
}

; Function Attrs: mustprogress nounwind uwtable
define linkonce_odr hidden noundef nonnull align 8 dereferenceable(136) ptr @_ZNK2cv3PtrINS_10xobjdetect18CvFeatureEvaluatorEEdeEv(ptr noundef nonnull align 8 dereferenceable(16) %0) #4 comdat align 2 {
  %2 = alloca ptr, align 8
  store ptr %0, ptr %2, align 8, !tbaa !28
  %3 = load ptr, ptr %2, align 8
  %4 = call noundef ptr @_ZNKSt12__shared_ptrIN2cv10xobjdetect18CvFeatureEvaluatorELN9__gnu_cxx12_Lock_policyE2EE3getEv(ptr noundef nonnull align 8 dereferenceable(16) %3) #3
  ret ptr %4
}

; Function Attrs: mustprogress uwtable
define hidden noundef i32 @_ZNK2cv10xobjdetect9WaldBoost7predictENS_3PtrINS0_18CvFeatureEvaluatorEEEPf(ptr noundef nonnull align 8 dereferenceable(128) %0, ptr noundef %1, ptr noundef %2) #6 align 2 {
  %4 = alloca i32, align 4
  %5 = alloca ptr, align 8
  %6 = alloca ptr, align 8
  %7 = alloca ptr, align 8
  %8 = alloca float, align 4
  %9 = alloca i32, align 4
  %10 = alloca i32, align 4
  %11 = alloca i32, align 4
  %12 = alloca float, align 4
  %13 = alloca i32, align 4
  store ptr %0, ptr %5, align 8, !tbaa !3
  store ptr %1, ptr %6, align 8, !tbaa !28
  store ptr %2, ptr %7, align 8, !tbaa !75
  %14 = load ptr, ptr %5, align 8
  call void @llvm.lifetime.start.p0(i64 4, ptr %8) #3
  store float 0.000000e+00, ptr %8, align 4, !tbaa !38
  call void @llvm.lifetime.start.p0(i64 4, ptr %9) #3
  %15 = getelementptr inbounds nuw %"class.cv::xobjdetect::WaldBoost", ptr %14, i32 0, i32 0
  %16 = load i32, ptr %15, align 8, !tbaa !10
  store i32 %16, ptr %9, align 4, !tbaa !8
  call void @llvm.lifetime.start.p0(i64 4, ptr %10) #3
  store i32 0, ptr %10, align 4, !tbaa !8
  br label %17

17:                                               ; preds = %70, %3
  %18 = load i32, ptr %10, align 4, !tbaa !8
  %19 = load i32, ptr %9, align 4, !tbaa !8
  %20 = icmp slt i32 %18, %19
  br i1 %20, label %22, label %21

21:                                               ; preds = %17
  store i32 2, ptr %11, align 4
  br label %73

22:                                               ; preds = %17
  call void @llvm.lifetime.start.p0(i64 4, ptr %12) #3
  %23 = call noundef nonnull align 8 dereferenceable(136) ptr @_ZNK2cv3PtrINS_10xobjdetect18CvFeatureEvaluatorEEdeEv(ptr noundef nonnull align 8 dereferenceable(16) %1) #3
  %24 = getelementptr inbounds nuw %"class.cv::xobjdetect::WaldBoost", ptr %14, i32 0, i32 3
  %25 = load i32, ptr %10, align 4, !tbaa !8
  %26 = sext i32 %25 to i64
  %27 = call noundef nonnull align 4 dereferenceable(4) ptr @_ZNKSt6vectorIiSaIiEEixEm(ptr noundef nonnull align 8 dereferenceable(24) %24, i64 noundef %26) #3
  %28 = load i32, ptr %27, align 4, !tbaa !8
  %29 = load ptr, ptr %23, align 8, !tbaa !40
  %30 = getelementptr inbounds ptr, ptr %29, i64 6
  %31 = load ptr, ptr %30, align 8
  %32 = call noundef float %31(ptr noundef nonnull align 8 dereferenceable(136) %23, i32 noundef %28)
  store float %32, ptr %12, align 4, !tbaa !38
  call void @llvm.lifetime.start.p0(i64 4, ptr %13) #3
  %33 = getelementptr inbounds nuw %"class.cv::xobjdetect::WaldBoost", ptr %14, i32 0, i32 4
  %34 = load i32, ptr %10, align 4, !tbaa !8
  %35 = sext i32 %34 to i64
  %36 = call noundef nonnull align 4 dereferenceable(4) ptr @_ZNKSt6vectorIiSaIiEEixEm(ptr noundef nonnull align 8 dereferenceable(24) %33, i64 noundef %35) #3
  %37 = load i32, ptr %36, align 4, !tbaa !8
  %38 = sitofp i32 %37 to float
  %39 = load float, ptr %12, align 4, !tbaa !38
  %40 = getelementptr inbounds nuw %"class.cv::xobjdetect::WaldBoost", ptr %14, i32 0, i32 1
  %41 = load i32, ptr %10, align 4, !tbaa !8
  %42 = sext i32 %41 to i64
  %43 = call noundef nonnull align 4 dereferenceable(4) ptr @_ZNKSt6vectorIfSaIfEEixEm(ptr noundef nonnull align 8 dereferenceable(24) %40, i64 noundef %42) #3
  %44 = load float, ptr %43, align 4, !tbaa !38
  %45 = fsub float %39, %44
  %46 = fmul float %38, %45
  %47 = fcmp ogt float %46, 0.000000e+00
  %48 = select i1 %47, i32 1, i32 -1
  store i32 %48, ptr %13, align 4, !tbaa !8
  %49 = getelementptr inbounds nuw %"class.cv::xobjdetect::WaldBoost", ptr %14, i32 0, i32 2
  %50 = load i32, ptr %10, align 4, !tbaa !8
  %51 = sext i32 %50 to i64
  %52 = call noundef nonnull align 4 dereferenceable(4) ptr @_ZNKSt6vectorIfSaIfEEixEm(ptr noundef nonnull align 8 dereferenceable(24) %49, i64 noundef %51) #3
  %53 = load float, ptr %52, align 4, !tbaa !38
  %54 = load i32, ptr %13, align 4, !tbaa !8
  %55 = sitofp i32 %54 to float
  %56 = load float, ptr %8, align 4, !tbaa !38
  %57 = call float @llvm.fmuladd.f32(float %53, float %55, float %56)
  store float %57, ptr %8, align 4, !tbaa !38
  %58 = load float, ptr %8, align 4, !tbaa !38
  %59 = getelementptr inbounds nuw %"class.cv::xobjdetect::WaldBoost", ptr %14, i32 0, i32 5
  %60 = load i32, ptr %10, align 4, !tbaa !8
  %61 = sext i32 %60 to i64
  %62 = call noundef nonnull align 4 dereferenceable(4) ptr @_ZNKSt6vectorIfSaIfEEixEm(ptr noundef nonnull align 8 dereferenceable(24) %59, i64 noundef %61) #3
  %63 = load float, ptr %62, align 4, !tbaa !38
  %64 = fcmp olt float %58, %63
  br i1 %64, label %65, label %66

65:                                               ; preds = %22
  store i32 -1, ptr %4, align 4
  store i32 1, ptr %11, align 4
  br label %67

66:                                               ; preds = %22
  store i32 0, ptr %11, align 4
  br label %67

67:                                               ; preds = %66, %65
  call void @llvm.lifetime.end.p0(i64 4, ptr %13) #3
  call void @llvm.lifetime.end.p0(i64 4, ptr %12) #3
  %68 = load i32, ptr %11, align 4
  switch i32 %68, label %73 [
    i32 0, label %69
  ]

69:                                               ; preds = %67
  br label %70

70:                                               ; preds = %69
  %71 = load i32, ptr %10, align 4, !tbaa !8
  %72 = add nsw i32 %71, 1
  store i32 %72, ptr %10, align 4, !tbaa !8
  br label %17, !llvm.loop !76

73:                                               ; preds = %67, %21
  call void @llvm.lifetime.end.p0(i64 4, ptr %10) #3
  %74 = load i32, ptr %11, align 4
  switch i32 %74, label %87 [
    i32 2, label %75
  ]

75:                                               ; preds = %73
  %76 = load float, ptr %8, align 4, !tbaa !38
  %77 = load ptr, ptr %7, align 8, !tbaa !75
  store float %76, ptr %77, align 4, !tbaa !38
  %78 = load float, ptr %8, align 4, !tbaa !38
  %79 = getelementptr inbounds nuw %"class.cv::xobjdetect::WaldBoost", ptr %14, i32 0, i32 5
  %80 = load i32, ptr %9, align 4, !tbaa !8
  %81 = sub nsw i32 %80, 1
  %82 = sext i32 %81 to i64
  %83 = call noundef nonnull align 4 dereferenceable(4) ptr @_ZNKSt6vectorIfSaIfEEixEm(ptr noundef nonnull align 8 dereferenceable(24) %79, i64 noundef %82) #3
  %84 = load float, ptr %83, align 4, !tbaa !38
  %85 = fcmp ogt float %78, %84
  %86 = select i1 %85, i32 1, i32 -1
  store i32 %86, ptr %4, align 4
  store i32 1, ptr %11, align 4
  br label %87

87:                                               ; preds = %75, %73
  call void @llvm.lifetime.end.p0(i64 4, ptr %9) #3
  call void @llvm.lifetime.end.p0(i64 4, ptr %8) #3
  %88 = load i32, ptr %4, align 4
  ret i32 %88
}