; Function Attrs: mustprogress uwtable
define hidden noundef range(i32 -1, 2) i32 @_ZNK2cv10xobjdetect9WaldBoost7predictENS_3PtrINS0_18CvFeatureEvaluatorEEEPf(ptr noundef nonnull readonly align 8 captures(none) dereferenceable(128) %0, ptr noundef readonly captures(none) %1, ptr noundef writeonly captures(none) %2) local_unnamed_addr #5 align 2 {
  %4 = load i32, ptr %0, align 8, !tbaa !3
  %.not27 = icmp sgt i32 %4, 0
  br i1 %.not27, label %.lr.ph, label %.._crit_edge_crit_edge

.._crit_edge_crit_edge:                           ; preds = %3
  %.phi.trans.insert = getelementptr inbounds nuw i8, ptr %0, i64 104
  %.pre = load ptr, ptr %.phi.trans.insert, align 8, !tbaa !36
  br label %._crit_edge

.lr.ph:                                           ; preds = %3
  %5 = getelementptr inbounds nuw i8, ptr %0, i64 56
  %6 = getelementptr inbounds nuw i8, ptr %0, i64 80
  %7 = getelementptr inbounds nuw i8, ptr %0, i64 8
  %8 = getelementptr inbounds nuw i8, ptr %0, i64 32
  %9 = getelementptr inbounds nuw i8, ptr %0, i64 104
  %wide.trip.count = zext nneg i32 %4 to i64
  br label %11

10:                                               ; preds = %11
  %indvars.iv.next = add nuw nsw i64 %indvars.iv, 1
  %exitcond.not = icmp eq i64 %indvars.iv.next, %wide.trip.count
  br i1 %exitcond.not, label %._crit_edge, label %11, !llvm.loop !63

11:                                               ; preds = %.lr.ph, %10
  %indvars.iv = phi i64 [ 0, %.lr.ph ], [ %indvars.iv.next, %10 ]
  %.02029 = phi float [ 0.000000e+00, %.lr.ph ], [ %34, %10 ]
  %12 = load ptr, ptr %1, align 8, !tbaa !45
  %13 = load ptr, ptr %5, align 8, !tbaa !20
  %14 = getelementptr inbounds nuw i32, ptr %13, i64 %indvars.iv
  %15 = load i32, ptr %14, align 4, !tbaa !62
  %16 = load ptr, ptr %12, align 8, !tbaa !50
  %17 = getelementptr inbounds nuw i8, ptr %16, i64 48
  %18 = load ptr, ptr %17, align 8
  %19 = tail call noundef float %18(ptr noundef nonnull align 8 dereferenceable(136) %12, i32 noundef %15)
  %20 = load ptr, ptr %6, align 8, !tbaa !20
  %21 = getelementptr inbounds nuw i32, ptr %20, i64 %indvars.iv
  %22 = load i32, ptr %21, align 4, !tbaa !62
  %23 = sitofp i32 %22 to float
  %24 = load ptr, ptr %7, align 8, !tbaa !36
  %25 = getelementptr inbounds nuw float, ptr %24, i64 %indvars.iv
  %26 = load float, ptr %25, align 4, !tbaa !37
  %27 = fsub float %19, %26
  %28 = fmul float %27, %23
  %29 = fcmp ogt float %28, 0.000000e+00
  %30 = load ptr, ptr %8, align 8, !tbaa !36
  %31 = getelementptr inbounds nuw float, ptr %30, i64 %indvars.iv
  %32 = load float, ptr %31, align 4, !tbaa !37
  %33 = select i1 %29, float 1.000000e+00, float -1.000000e+00
  %34 = tail call float @llvm.fmuladd.f32(float %32, float %33, float %.02029)
  %35 = load ptr, ptr %9, align 8, !tbaa !36
  %36 = getelementptr inbounds nuw float, ptr %35, i64 %indvars.iv
  %37 = load float, ptr %36, align 4, !tbaa !37
  %38 = fcmp uge float %34, %37
  br i1 %38, label %10, label %.thread

._crit_edge:                                      ; preds = %10, %.._crit_edge_crit_edge
  %39 = phi ptr [ %.pre, %.._crit_edge_crit_edge ], [ %35, %10 ]
  %.020.lcssa = phi float [ 0.000000e+00, %.._crit_edge_crit_edge ], [ %34, %10 ]
  store float %.020.lcssa, ptr %2, align 4, !tbaa !37
  %40 = sext i32 %4 to i64
  %41 = getelementptr float, ptr %39, i64 %40
  %42 = getelementptr i8, ptr %41, i64 -4
  %43 = load float, ptr %42, align 4, !tbaa !37
  %44 = fcmp ogt float %.020.lcssa, %43
  %45 = select i1 %44, i32 1, i32 -1
  br label %.thread

.thread:                                          ; preds = %11, %._crit_edge
  %.3 = phi i32 [ %45, %._crit_edge ], [ -1, %11 ]
  ret i32 %.3
}